target datalayout = "e-m:e-p270:32:32-p271:32:32-p272:64:64-i64:64-i128:128-f80:128-n8:16:32:64-S128"
target triple = "x86_64-pc-linux-gnu"

%struct.__va_list_tag = type { i32, i32, ptr, ptr }

; Function Attrs: nounwind uwtable
define internal void @cli_multifree(ptr noundef %0, ...) #0 {
  %2 = alloca ptr, align 8
  %3 = alloca ptr, align 8
  %4 = alloca [1 x %struct.__va_list_tag], align 16
  store ptr %0, ptr %2, align 8
  %5 = load ptr, ptr %2, align 8
  call void @free(ptr noundef %5) #9
  %6 = getelementptr inbounds [1 x %struct.__va_list_tag], ptr %4, i64 0, i64 0
  call void @llvm.va_start.p0(ptr %6)
  br label %7

7:                                                ; preds = %25, %1
  %8 = getelementptr inbounds [1 x %struct.__va_list_tag], ptr %4, i64 0, i64 0
  %9 = getelementptr inbounds %struct.__va_list_tag, ptr %8, i32 0, i32 0
  %10 = load i32, ptr %9, align 16
  %11 = icmp ule i32 %10, 40
  br i1 %11, label %12, label %17

12:                                               ; preds = %7
  %13 = getelementptr inbounds %struct.__va_list_tag, ptr %8, i32 0, i32 3
  %14 = load ptr, ptr %13, align 16
  %15 = getelementptr i8, ptr %14, i32 %10
  %16 = add i32 %10, 8
  store i32 %16, ptr %9, align 16
  br label %21

17:                                               ; preds = %7
  %18 = getelementptr inbounds %struct.__va_list_tag, ptr %8, i32 0, i32 2
  %19 = load ptr, ptr %18, align 8
  %20 = getelementptr i8, ptr %19, i32 8
  store ptr %20, ptr %18, align 8
  br label %21

21:                                               ; preds = %17, %12
  %22 = phi ptr [ %15, %12 ], [ %19, %17 ]
  %23 = load ptr, ptr %22, align 8
  store ptr %23, ptr %3, align 8
  %24 = icmp ne ptr %23, null
  br i1 %24, label %25, label %27

25:                                               ; preds = %21
  %26 = load ptr, ptr %3, align 8
  call void @free(ptr noundef %26) #9
  br label %7

27:                                               ; preds = %21
  %28 = getelementptr inbounds [1 x %struct.__va_list_tag], ptr %4, i64 0, i64 0
  call void @llvm.va_end.p0(ptr %28)
  ret void
}